(dp0
S'METTS MARK'
p1
(dp2
S'salary'
p3
F0.013697755512806605
sS'fraction_from_poi'
p4
F0.04708798017348203
sS'deferral_payments'
p5
S'NaN'
p6
sS'total_payments'
p7
F0.0034265019894294552
sS'exercised_stock_options'
p8
g6
sS'bonus'
p9
F0.006163732211353268
sS'director_fees'
p10
g6
sS'restricted_stock_deferred'
p11
g6
sS'total_stock_value'
p12
F0.0013464883625988109
sS'expenses'
p13
F0.018012499240716396
sS'fraction_to_poi'
p14
F0.034482758620689655
sS'loan_advances'
p15
g6
sS'other'
p16
F4.0780368443129046e-05
sS'poi'
p17
I00
sS'deferred_income'
p18
g6
sS'restricted_stock'
p19
F0.004489346830813658
sS'long_term_incentive'
p20
g6
ssS'BAXTER JOHN C'
p21
(dp22
g3
F0.010002235975432955
sg4
S'NaN'
p23
sg5
F0.04038656007612162
sg7
F0.01818195195509996
sg8
F0.02142820851669853
sg9
F0.012327464422706536
sg10
g6
sg11
g6
sg12
F0.024448850326776853
sg13
F0.002139365120478729
sg14
g23
sg15
g6
sg16
F0.062349503741587084
sg17
I00
sg18
F0.04951453567264632
sg19
F0.03025356389699663
sg20
F0.032687386206088104
ssS'ELLIOTT STEVEN'
p24
(dp25
g3
F0.006401270750037382
sg4
g23
sg5
g6
sg7
F0.0006832338353723831
sg8
F0.01568604457217639
sg9
F0.0035955104566227397
sg10
g6
sg11
g6
sg12
F0.015370745244745632
sg13
F0.015004590084271885
sg14
g23
sg15
g6
sg16
F0.0003037668709145951
sg17
I00
sg18
F0.014315384573890564
sg19
F0.01372283188466465
sg20
g6
ssS'CORDES WILLIAM R'
p26
(dp27
g3
g6
sg4
F0.013089005235602094
sg5
g6
sg7
g6
sg8
F0.002090844356628732
sg9
g6
sg10
g6
sg11
g6
sg12
F0.0023893262948621622
sg13
g6
sg14
F0.0
sg15
g6
sg16
g6
sg17
I00
sg18
g6
sg19
F0.0029644581392782214
sg20
g6
ssS'HANNON KEVIN P'
p28
(dp29
g3
F0.009110654346171162
sg4
F0.03062200956937799
sg5
g6
sg7
F0.0009315730785829274
sg8
F0.017763439653070912
sg9
F0.01540933052838317
sg10
g6
sg11
g6
sg12
F0.014708688390482665
sg13
F0.0065019508335692365
sg14
F0.65625
sg15
g6
sg16
F0.0002660098746146636
sg17
I01
sg18
F0.1113500924216795
sg19
F0.006545802265197916
sg20
F0.03332536580162272
ssS'MORDAUNT KRISTINA M'
p30
(dp31
g3
F0.010001898950162538
sg4
g23
sg5
g6
sg7
F0.002028232361204019
sg8
g6
sg9
F0.0033386882811496867
sg10
g6
sg11
g6
sg12
F0.00047987442097671365
sg13
F0.006688954266868225
sg14
g23
sg15
g6
sg16
F3.3069597628307517e-05
sg17
I00
sg18
g6
sg19
F0.0015999564280246468
sg20
g6
ssS'MEYER ROCKFORD G'
p32
(dp33
g3
g6
sg4
F0.0
sg5
F0.057606962804062266
sg7
F0.005964204613762161
sg8
F0.0015828928291913113
sg9
g6
sg10
g6
sg11
g6
sg12
F0.0021998897050610243
sg13
g6
sg14
F0.0
sg15
g6
sg16
g6
sg17
I00
sg18
g6
sg19
F0.0035480037073317744
sg20
g6
ssS'MCMAHON JEFFREY'
p34
(dp35
g3
F0.013872259708378024
sg4
F0.024628450106157114
sg5
g6
sg7
F0.01322990796778118
sg8
F0.0035413133010867193
sg9
F0.026709506249197493
sg10
g6
sg11
g6
sg12
F0.003826970314580755
sg13
F0.026189649369517638
sg14
F0.5416666666666666
sg15
g6
sg16
F0.006969060286017098
sg17
I00
sg18
g6
sg19
F0.004287838722059377
sg20
F0.014320576874026934
ssS'HAEDICKE MARK E'
p36
(dp37
g3
F0.014009953254969466
sg4
F0.04489897730107259
sg5
F0.06724746345430514
sg7
F0.012453152820410086
sg8
F0.0019525987606009675
sg9
F0.01181382007176043
sg10
g6
sg11
F0.043530979090348046
sg12
F0.001848277148529437
sg13
F0.014549401951941454
sg14
F0.03142709943328181
sg15
g6
sg16
F0.0012276765860850492
sg17
I00
sg18
F0.03338290425236893
sg19
F0.00402209755369647
sg20
F0.02026601251294054
ssS'PIPER GREGORY F'
p38
(dp39
g3
F0.0073805163968598386
sg4
F0.049273021001615507
sg5
F0.03522183250177132
sg7
F0.005607306298851239
sg8
F0.002823578091120206
sg9
F0.004109154807568845
sg10
g6
sg11
F0.05405377582162785
sg12
F0.002025939542667456
sg13
F0.008224521785040413
sg14
F0.21621621621621623
sg15
g6
sg16
F1.823398083261747e-05
sg17
I00
sg18
F0.001190766612851813
sg19
F0.003142624118379004
sg20
g6
ssS'HUMPHREY GENE E'
p40
(dp41
g3
F0.0048952546055533
sg4
F0.078125
sg5
F0.09240000653297425
sg7
F0.010004382732476141
sg8
F0.007322102616081395
sg9
g6
sg10
g6
sg11
g6
sg12
F0.00525366635760477
sg13
F0.0009539276260420331
sg14
F1.0
sg15
g6
sg16
g6
sg17
I00
sg18
g6
sg19
g6
sg20
g6
ssS'NOLES JAMES L'
p42
(dp43
g3
g6
sg4
g23
sg5
F0.024137126880209313
sg7
F0.002498982006594445
sg8
g6
sg9
g6
sg10
g6
sg11
F0.012479694561864473
sg12
F0.0008485544980395147
sg13
g6
sg14
g23
sg15
g6
sg16
g6
sg17
I00
sg18
g6
sg19
F0.0035547331773206365
sg20
g6
ssS'BLACHMAN JEREMY M'
p44
(dp45
g3
F0.00930736476233783
sg4
F0.010101010101010102
sg5
g6
sg7
F0.006501846473928518
sg8
F0.0024547831051692946
sg9
F0.008731953966083797
sg10
g6
sg11
g6
sg12
F0.002196393809202487
sg13
F0.016084969470113644
sg14
F0.14285714285714285
sg15
g6
sg16
F6.374862193408678e-06
sg17
I00
sg18
g6
sg19
F0.0014505652635854744
sg20
F0.01714295029661641
ssS'SUNDE MARTIN'
p46
(dp47
g3
F0.009642143197618625
sg4
F0.013978088401964487
sg5
g6
sg7
F0.00498588540062165
sg8
g6
sg9
F0.0071910209132454795
sg10
g6
sg11
g6
sg12
F0.0016085263551342609
sg13
g6
sg14
F0.34210526315789475
sg15
g6
sg16
F0.002604365575941026
sg17
I00
sg18
g6
sg19
F0.005363011590211434
sg20
F0.009819292423829491
ssS'GIBBS DANA R'
p48
(dp49
g3
g6
sg4
F0.0
sg5
F0.015728073175296033
sg7
F0.003118953987633895
sg8
F0.007115237808085604
sg9
g6
sg10
g6
sg11
g6
sg12
F0.005105239226857798
sg13
g6
sg14
F0.0
sg15
g6
sg16
g6
sg17
I00
sg18
g6
sg19
g6
sg20
F0.009519654701272381
ssS'LOWRY CHARLES P'
p50
(dp51
g3
g6
sg4
g23
sg5
g6
sg7
g6
sg8
F0.0011938677974365226
sg9
g6
sg10
g6
sg11
F0.020283793079600484
sg12
F0.0008566095576213981
sg13
g6
sg14
g23
sg15
g6
sg16
g6
sg17
I00
sg18
g6
sg19
F0.0011792763109558096
sg20
g6
ssS'COLWELL WESLEY'
p52
(dp53
g3
F0.010805105064070564
sg4
F0.13651877133105803
sg5
F0.000860569747666363
sg7
F0.004809320803609489
sg8
g6
sg9
F0.012327464422706536
sg10
g6
sg11
g6
sg12
F0.0016069659750209703
sg13
F0.0031544174642487255
sg14
F0.275
sg15
g6
sg16
F0.002384479704255143
sg17
I01
sg18
F0.005146378057200309
sg19
F0.005357809103720615
sg20
g6
ssS'MULLER MARK S'
p54
(dp55
g3
F0.00942375082238847
sg4
F0.08823529411764706
sg5
F0.02627290452669038
sg7
F0.010333038456634061
sg8
F0.003388203897820146
sg9
F0.011300175720814324
sg10
g6
sg11
g6
sg12
F0.0032607985881349328
sg13
g6
sg14
F0.0
sg15
g6
sg16
F2.2194832710139772e-05
sg17
I00
sg18
F0.025685092690140507
sg19
F0.002766433701418972
sg20
F0.03556216892288369
ssS'JACKSON CHARLENE R'
p56
(dp57
g3
F0.01080570422010686
sg4
F0.09689922480620156
sg5
g6
sg7
F0.0017786313660528416
sg8
F0.0005935996458859907
sg9
F0.0025682217547305284
sg10
g6
sg11
g6
sg12
F0.0016702396187594614
sg13
F0.0019447210974637445
sg14
F0.3392857142857143
sg15
g6
sg16
F5.7069078827022545e-05
sg17
I00
sg18
g6
sg19
F0.004148729758059287
sg20
g6
ssS'WESTFAHL RICHARD K'
p58
(dp59
g3
F0.002387037648606144
sg4
g23
sg5
g6
sg7
F0.002459399783311046
sg8
g6
sg9
g6
sg10
g6
sg11
g6
sg12
F0.0008858954528155311
sg13
F0.009907934714217113
sg14
g23
sg15
g6
sg16
F0.009401281145742733
sg17
I00
sg18
F0.0003858122406863943
sg19
F0.0029536771753850047
sg20
F0.005279901491136131
ssS'WALTERS GARETH W'
p60
(dp61
g3
g6
sg4
g23
sg5
F0.0016714253067225179
sg7
F0.00028207093895335933
sg8
F0.003304836350572869
sg9
g6
sg10
g6
sg11
g6
sg12
F0.0023712461382692264
sg13
F0.006453433088872665
sg14
g23
sg15
g6
sg16
g6
sg17
I00
sg18
g6
sg19
g6
sg20
g6
ssS'WALLS JR ROBERT H'
p62
(dp63
g3
F0.013372076759827068
sg4
F0.02533532041728763
sg5
g6
sg7
F0.005804639784584415
sg8
F0.01394177647194673
sg9
F0.008731953966083797
sg10
g6
sg11
g6
sg12
F0.0135762206595289
sg13
F0.009729526944348619
sg14
F0.0
sg15
g6
sg16
F4.687398671624028e-08
sg17
I00
sg18
g6
sg19
F0.011912412625563027
sg20
F0.011144466477094645
ssS'KITCHEN LOUISE'
p64
(dp65
g3
F0.010164757050278441
sg4
F0.030222757375075255
sg5
g6
sg7
F0.011201327091974633
sg8
F0.00025994662629424823
sg9
F0.03184594975865855
sg10
g6
sg11
g6
sg12
F0.0012592198470886865
sg13
F0.0011029191255039446
sg14
F0.11226851851851852
sg15
g6
sg16
F0.002201319601161434
sg17
I00
sg18
g6
sg19
F0.0035765253036243627
sg20
g6
ssS'CHAN RONNIE'
p66
(dp67
g3
g6
sg4
g23
sg5
g6
sg7
g6
sg8
g6
sg9
g6
sg10
F0.07063482245836125
sg11
F0.004284137288782529
sg12
g6
sg13
g6
sg14
g23
sg15
g6
sg16
g6
sg17
I00
sg18
F0.0035288959614782197
sg19
F0.0002490747957109013
sg20
g6
ssS'BELFER ROBERT'
p68
(dp69
g3
g6
sg4
g23
sg5
F-0.0031947989545745097
sg7
F0.00033076617369545057
sg8
F1.0536816309772777e-05
sg9
g6
sg10
F0.002348916745381
sg11
F-0.0058194844570020965
sg12
F-0.00010147764061256647
sg13
g6
sg14
g23
sg15
g6
sg16
g6
sg17
I00
sg18
g6
sg19
g6
sg20
g6
ssS'SHANKMAN JEFFREY A'
p70
(dp71
g3
F0.011388083887387275
sg4
F0.029183483390251473
sg5
g6
sg7
F0.009805852034543542
sg8
F0.0046249663206784615
sg9
F0.020545774037844227
sg10
g6
sg11
g6
sg12
F0.0047686758230707635
sg13
F0.03418762766947878
sg14
F0.030958597538232
sg15
g6
sg16
F2.7913459089521087e-05
sg17
I00
sg18
g6
sg19
F0.004835220103046218
sg20
F0.011426215380394613
ssS'WODRASKA JOHN'
p72
(dp73
g3
g6
sg4
g23
sg5
g6
sg7
F0.0006117818878800449
sg8
g6
sg9
g6
sg10
g6
sg11
g6
sg12
g6
sg13
g6
sg14
g23
sg15
g6
sg16
F0.004443255511812491
sg17
I00
sg18
g6
sg19
g6
sg20
g6
ssS'BERGSIEKER RICHARD P'
p74
(dp75
g3
F0.007037162540809548
sg4
F0.010443864229765013
sg5
g6
sg7
F0.0019970209423554102
sg8
g6
sg9
F0.0025682217547305284
sg10
g6
sg11
g6
sg12
F0.0015172257069420052
sg13
F0.011303297411100784
sg14
F0.0
sg15
g6
sg16
F0.010015002253818467
sg17
I00
sg18
F0.017354870563386967
sg19
F0.005058604744227233
sg20
F0.00371481528928529
ssS'URQUHART JOHN A'
p76
(dp77
g3
g6
sg4
g23
sg5
g6
sg7
F0.0007378699532927507
sg8
g6
sg9
g6
sg10
F0.026217772111458065
sg11
g6
sg12
g6
sg13
F0.043676667052516445
sg14
g23
sg15
g6
sg16
g6
sg17
I00
sg18
F0.0013098325571303086
sg19
g6
sg20
g6
ssS'BIBI PHILIPPE A'
p78
(dp79
g3
F0.007999669265867964
sg4
F0.01431238332296204
sg5
g6
sg7
F0.006607556116054523
sg8
F0.00470142158812435
sg9
F0.010272887018922114
sg10
g6
sg11
g6
sg12
F0.004243442210865667
sg13
F0.0073653374714767236
sg14
F0.2
sg15
g6
sg16
F0.009976846828631447
sg17
I00
sg18
g6
sg19
F0.002901130527170949
sg20
F0.007619668369319537
ssS'RIEKER PAULA H'
p80
(dp81
g3
F0.009331892712573727
sg4
F0.02635542168674699
sg5
F0.00669124926800143
sg7
F0.003546781478133363
sg8
F0.005245114894599761
sg9
F0.0071910209132454795
sg10
g6
sg11
g6
sg12
F0.004416214033114686
sg13
F0.006355251511022124
sg14
F0.5853658536585366
sg15
g6
sg16
F4.5702137048334274e-05
sg17
I01
sg18
F0.003572335561911058
sg19
F0.002176519307720316
sg20
g6
ssS'WHALEY DAVID A'
p82
(dp83
g3
g6
sg4
g23
sg5
g6
sg7
g6
sg8
F0.0003166433584377927
sg9
g6
sg10
g6
sg11
g6
sg12
F0.00022719410622981738
sg13
g6
sg14
g23
sg15
g6
sg16
g6
sg17
I00
sg18
g6
sg19
g6
sg20
g6
ssS'BECK SALLY W'
p84
(dp85
g3
F0.008662672867282556
sg4
F0.01968557758031442
sg5
g6
sg7
F0.003127169896689784
sg8
g6
sg9
F0.0071910209132454795
sg10
g6
sg11
g6
sg12
F0.0002900442839788609
sg13
F0.007100400023074581
sg14
F0.08887865530739121
sg15
g6
sg16
F1.3265338240696e-05
sg17
I00
sg18
g6
sg19
F0.0009670409512956797
sg20
g6
ssS'HAUG DAVID L'
p86
(dp87
g3
g6
sg4
F0.006980802792321117
sg5
g6
sg7
F1.5328188537106245e-06
sg8
g6
sg9
g6
sg10
g6
sg11
g6
sg12
F0.00510299301595725
sg13
F9.073200287744608e-05
sg14
F0.3684210526315789
sg15
g6
sg16
g6
sg17
I00
sg18
g6
sg19
F0.017013964739833205
sg20
g6
ssS'ECHOLS JOHN B'
p88
(dp89
g3
F0.006824574489681016
sg4
g23
sg5
g6
sg7
F0.00868809471052127
sg8
F0.0019291451225927304
sg9
F0.0020545774037844227
sg10
g6
sg11
g6
sg12
F0.0023220228198871347
sg13
F0.004112547414634556
sg14
g23
sg15
g6
sg16
F0.0012603243178329105
sg17
I00
sg18
g6
sg19
F0.0031268862130800807
sg20
F0.04605699097529678
ssS'MENDELSOHN JOHN'
p90
(dp91
g3
g6
sg4
g23
sg5
g6
sg7
F4.775940849456261e-07
sg8
g6
sg9
g6
sg10
F0.07418572673767998
sg11
g6
sg12
g6
sg13
F2.8270181949183204e-05
sg14
g23
sg15
g6
sg16
g6
sg17
I00
sg18
F0.003706298145482723
sg19
g6
sg20
g6
ssS'HICKERSON GARY J'
p92
(dp93
g3
F0.007930878663450647
sg4
F0.030303030303030304
sg5
g6
sg7
F0.00671792875448287
sg8
g6
sg9
F0.017463907932167594
sg10
g6
sg11
g6
sg12
F0.0010151584460944055
sg13
F0.01888161632091088
sg14
F0.037037037037037035
sg15
g6
sg16
F4.537401914132059e-05
sg17
I00
sg18
g6
sg19
F0.0033846548394607435
sg20
F0.0014266333357569798
ssS'CLINE KENNETH W'
p94
(dp95
g3
g6
sg4
g23
sg5
g6
sg7
g6
sg8
g6
sg9
g6
sg10
g6
sg11
F0.06237049261507647
sg12
F0.0004361653662398198
sg13
g6
sg14
g23
sg15
g6
sg16
g6
sg17
I00
sg18
g6
sg19
F0.00508037385067923
sg20
g6
ssS'LEWIS RICHARD'
p96
(dp97
g3
g6
sg4
F0.01050420168067227
sg5
g6
sg7
g6
sg8
F0.002727951270833066
sg9
g6
sg10
g6
sg11
g6
sg12
F0.001957326545148974
sg13
g6
sg14
F0.0
sg15
g6
sg16
g6
sg17
I00
sg18
g6
sg19
g6
sg20
g6
ssS'HAYES ROBERT E'
p98
(dp99
g3
g6
sg4
F0.031746031746031744
sg5
F0.00024813458026700166
sg7
F2.5690043988190067e-05
sg8
g6
sg9
g6
sg10
g6
sg11
g6
sg12
F0.0003484802890770324
sg13
g6
sg14
F0.0
sg15
g6
sg16
g6
sg17
I00
sg18
g6
sg19
F0.0011618733030484675
sg20
g6
ssS'KOPPER MICHAEL J'
p100
(dp101
g3
F0.008399605920096026
sg4
g23
sg5
g6
sg7
F0.00855994460037694
sg8
g6
sg9
F0.00821830961513769
sg10
g6
sg11
g6
sg12
F0.002266997557160492
sg13
F0.022565335637735193
sg14
g23
sg15
g6
sg16
F0.021269118346480743
sg17
I01
sg18
g6
sg19
F0.007558430196201496
sg20
F0.012420590542074091
ssS'LEFF DANIEL P'
p102
(dp103
g3
F0.010251035519505168
sg4
F0.02374202693125443
sg5
g6
sg7
F0.008597429282071052
sg8
g6
sg9
F0.010272887018922114
sg10
g6
sg11
g6
sg12
F0.0008297355774106404
sg13
g6
sg14
F0.2222222222222222
sg15
g6
sg16
F7.22562505230844e-05
sg17
I00
sg18
g6
sg19
F0.002766433701418972
sg20
F0.028593237267900813
ssS'LAVORATO JOHN J'
p104
(dp105
g3
F0.012705403327690157
sg4
F0.07273729163796666
sg5
g6
sg7
F0.03364378293432741
sg8
F0.013340202845742293
sg9
F0.08218309615137691
sg10
g6
sg11
g6
sg12
F0.011891900796620307
sg13
F0.009462297319031678
sg14
F0.15899419729206962
sg15
g6
sg16
F3.637421369180246e-05
sg17
I00
sg18
g6
sg19
F0.007735813500343483
sg20
F0.04194763241889316
ssS'BERBERIAN DAVID'
p106
(dp107
g3
F0.008110400790826052
sg4
g23
sg5
g6
sg7
F0.0007372826416477499
sg8
F0.005210338589445863
sg9
g6
sg10
g6
sg11
g6
sg12
F0.005738921558382183
sg13
F0.00227154732256545
sg14
g23
sg15
g6
sg16
g6
sg17
I00
sg18
g6
sg19
F0.0066697718400440436
sg20
g6
ssS'DETMERING TIMOTHY J'
p108
(dp109
g3
F0.007882646602528761
sg4
g23
sg5
F0.027282242814943906
sg7
F0.003887173754230116
sg8
F0.006504487368650646
sg9
F0.0043659769830418985
sg10
g6
sg11
F0.041583320003146455
sg12
F0.004667020971147396
sg13
F0.00998147539023357
sg14
g23
sg15
g6
sg16
F2.5897877660722757e-05
sg17
I00
sg18
F0.027694209933514905
sg19
F0.002417606214881154
sg20
F0.008566374361711267
ssS'WAKEHAM JOHN'
p110
(dp111
g3
g6
sg4
g23
sg5
g6
sg7
F0.0006875773599557399
sg8
g6
sg9
g6
sg10
F0.07815278612987901
sg11
g6
sg12
g6
sg13
F0.01982217291494992
sg14
g23
sg15
g6
sg16
g6
sg17
I00
sg18
g6
sg19
g6
sg20
g6
ssS'POWERS WILLIAM'
p112
(dp113
g3
g6
sg4
F0.0
sg5
g6
sg7
g6
sg8
g6
sg9
g6
sg10
F0.012513255112379756
sg11
g6
sg12
g6
sg13
g6
sg14
F0.0
sg15
g6
sg16
g6
sg17
I00
sg18
F0.0006251587233344351
sg19
g6
sg20
g6
ssS'GOLD JOSEPH'
p114
(dp115
g3
F0.010218606199040609
sg4
g23
sg5
g6
sg7
F0.00692825409012139
sg8
F0.001400145622971222
sg9
F0.007704665264191585
sg10
g6
sg11
g6
sg12
F0.0020197739699189233
sg13
g6
sg14
g23
sg15
g6
sg16
F0.019201647414387533
sg17
I00
sg18
g6
sg19
F0.0033846548394607435
sg20
F0.00628179902496867
ssS'BANNANTINE JAMES M'
p116
(dp117
g3
F1.7862339332096052e-05
sg4
F0.06890459363957598
sg5
g6
sg7
F0.00295655586381708
sg8
F0.012978268818721854
sg9
g6
sg10
g6
sg11
F0.07393924707936925
sg12
F0.012067600057665941
sg13
F0.01075432104000651
sg14
F0.0
sg15
g6
sg16
F0.020261819808942098
sg17
I00
sg18
F0.0001823320070799404
sg19
F0.013486195482171474
sg20
g6
ssS'DUNCAN JOHN H'
p118
(dp119
g3
g6
sg4
g23
sg5
g6
sg7
F0.0002500656812878815
sg8
F0.001192408360169872
sg9
g6
sg10
F0.0732862024558872
sg11
g6
sg12
F0.0008555623998757532
sg13
g6
sg14
g23
sg15
g6
sg16
g6
sg17
I00
sg18
F0.0008930838904777645
sg19
g6
sg20
g6
ssS'SHAPIRO RICHARD S'
p120
(dp121
g3
F0.010076156851411062
sg4
F0.0048848108786058485
sg5
g6
sg7
F0.003412693711797818
sg8
F0.00194967026340437
sg9
F0.006677376562299373
sg10
g6
sg11
g6
sg12
F0.0022715291035367
sg13
F0.026315528085088663
sg14
F0.053497942386831275
sg15
g6
sg16
F1.65230803174747e-05
sg17
I00
sg18
g6
sg19
F0.002909433020361312
sg20
g6
ssS'SHERRIFF JOHN R'
p122
(dp123
g3
F0.016056632827706804
sg4
F0.008785691873235017
sg5
g6
sg7
F0.013990240978001677
sg8
F0.005887652198457808
sg9
F0.01540933052838317
sg10
g6
sg11
g6
sg12
F0.00720118184018301
sg13
g6
sg14
F0.25
sg15
g6
sg16
F0.04340967098000311
sg17
I00
sg18
g6
sg19
F0.009924809567701073
sg20
F0.011426215380394613
ssS'SHELBY REX'
p124
(dp125
g3
F0.007932975709577685
sg4
F0.057777777777777775
sg5
g6
sg7
F0.006466510965616663
sg8
F0.005210338589445863
sg9
F0.0020545774037844227
sg10
g6
sg11
g6
sg12
F0.005738921558382183
sg13
F0.004371181376521003
sg14
F0.358974358974359
sg15
g6
sg16
F0.036873984138171015
sg17
I01
sg18
F0.00014885922286483378
sg19
F0.0066697718400440436
sg20
g6
ssS'LEMAISTRE CHARLES'
p126
(dp127
g3
g6
sg4
g23
sg5
g6
sg7
F0.0002823355518923157
sg8
F0.001324328658857341
sg9
g6
sg10
F0.08043663394867563
sg11
g6
sg12
F0.0009502162542996671
sg13
g6
sg14
g23
sg15
g6
sg16
g6
sg17
I00
sg18
F0.0008930838904777645
sg19
g6
sg20
g6
ssS'DEFFNER JOSEPH M'
p128
(dp129
g3
F0.007718665084844801
sg4
F0.16106442577030813
sg5
g6
sg7
F0.003900294683617879
sg8
F5.574088092274926e-05
sg9
F0.006163732211353268
sg10
g6
sg11
g6
sg12
F0.0003664154545974944
sg13
F0.007951179687950675
sg14
F0.05405405405405406
sg15
g6
sg16
F0.0005988854912800439
sg17
I00
sg18
g6
sg19
F0.001088324876773391
sg20
F0.006911287614127782
ssS'KISHKILL JOSEPH G'
p130
(dp131
g3
F0.0065250339187849235
sg4
g23
sg5
g6
sg7
F0.002274690270958325
sg8
g6
sg9
g6
sg10
g6
sg11
g6
sg12
F0.0023804910452236336
sg13
F0.022221700115258296
sg14
g23
sg15
g6
sg16
F0.010906568918154714
sg17
I00
sg18
F0.0018233915175106424
sg19
F0.00793683051892754
sg20
g6
ssS'WHALLEY LAWRENCE G'
p132
(dp133
g3
F0.019111729456783792
sg4
F0.03090214321315833
sg5
g6
sg7
F0.015094470772266569
sg8
F0.010530272898731092
sg9
F0.03081866105676634
sg10
g6
sg11
g6
sg12
F0.013990803068980463
sg13
F0.011047910699843635
sg14
F0.04316546762589928
sg15
g6
sg16
F0.007055144362621474
sg17
I00
sg18
g6
sg19
F0.02145585998294889
sg20
F0.016659395727226668
ssS'PIRO JIM'
p134
(dp135
g3
g6
sg4
F0.0
sg5
g6
sg7
g6
sg8
g6
sg9
g6
sg10
g6
sg11
g6
sg12
F0.00010886758241754575
sg13
g6
sg14
F0.0625
sg15
g6
sg16
g6
sg17
I00
sg18
g6
sg19
F0.0003629770220674207
sg20
g6
ssS'MCCONNELL MICHAEL S'
p136
(dp137
g3
F0.013669670073605195
sg4
F0.02763592670471613
sg5
g6
sg7
F0.0067810744372816265
sg8
F0.005205892919002836
sg9
F0.011300175720814324
sg10
g6
sg11
g6
sg12
F0.007137424892869606
sg13
F0.015541723541306365
sg14
F0.07075127644055434
sg15
g6
sg16
F1.2655976413384877e-05
sg17
I00
sg18
g6
sg19
F0.011343177732001183
sg20
F0.011426215380394613
ssS'DELAINEY DAVID W'
p138
(dp139
g3
F0.013674350980138764
sg4
F0.02133850630455868
sg5
g6
sg7
F0.01532166679625709
sg8
F0.0073488696578180935
sg9
F0.03081866105676634
sg10
g6
sg11
g6
sg12
F0.008318025056993517
sg13
F0.016460504454654818
sg14
F0.198435972629521
sg15
g6
sg16
F3.8928845967837554e-05
sg17
I01
sg18
g6
sg19
F0.010152890258634863
sg20
F0.02668857263874593
ssS'SULLIVAN-SHAKLOVITZ COLLEEN'
p140
(dp141
g3
F0.006095626277021516
sg4
g23
sg5
F0.005672498011120768
sg7
F0.0032249088807764946
sg8
F0.004369891969566724
sg9
F0.0010272887018922114
sg10
g6
sg11
g6
sg12
F0.003135431942248095
sg13
g6
sg14
g23
sg15
g6
sg16
F3.796792924015463e-06
sg17
I00
sg18
g6
sg19
g6
sg20
F0.011426215380394613
ssS'WROBEL BRUCE'
p142
(dp143
g3
g6
sg4
g23
sg5
g6
sg7
g6
sg8
F0.0004462670481518071
sg9
g6
sg10
g6
sg11
g6
sg12
F0.00032020012560783737
sg13
g6
sg14
g23
sg15
g6
sg16
g6
sg17
I00
sg18
g6
sg19
g6
sg20
g6
ssS'LINDHOLM TOD A'
p144
(dp145
g3
F0.008854664929663388
sg4
g23
sg5
F0.006360766796632127
sg7
F0.002826482469384727
sg8
F0.008177214174824548
sg9
F0.0020545774037844227
sg10
g6
sg11
g6
sg12
F0.007052108003223893
sg13
F0.011026708063381747
sg14
g23
sg15
g6
sg16
F6.163929253185597e-05
sg17
I00
sg18
g6
sg19
F0.003950567201089662
sg20
F0.0036066167857138737
ssS'MEYER JEROME J'
p146
(dp147
g3
g6
sg4
g23
sg5
g6
sg7
F6.941249167013796e-06
sg8
g6
sg9
g6
sg10
F0.027419044602246524
sg11
g6
sg12
g6
sg13
F0.0004108727119776559
sg14
g23
sg15
g6
sg16
g6
sg17
I00
sg18
F0.0013698477945704142
sg19
g6
sg20
g6
ssS'LAY KENNETH L'
p148
(dp149
g3
F0.04015547499985864
sg4
F0.028785396676807865
sg5
F0.006324486348016276
sg7
F0.3341861119931991
sg8
F0.11017431133806341
sg9
F0.0719102091324548
sg10
g6
sg11
g6
sg12
F0.11302417267455395
sg13
F0.01906938381318147
sg14
F0.4444444444444444
sg15
F0.9714030384271671
sg16
F0.2428008997649246
sg17
I01
sg18
F0.010717006685733175
sg19
F0.11327066905104245
sg20
F0.07419325959182825
ssS'BUTTS ROBERT H'
p150
(dp151
g3
F0.009793055624260862
sg4
g23
sg5
g6
sg7
F0.0041033786602927644
sg8
g6
sg9
F0.007704665264191585
sg10
g6
sg11
g6
sg12
F0.0009611274078647268
sg13
F0.001797448730687932
sg14
g23
sg15
g6
sg16
F0.003530923671360948
sg17
I00
sg18
F0.0026792516714332936
sg19
F0.0032045091531112415
sg20
F0.0036066167857138737
ssS'OLSON CINDY K'
p152
(dp153
g3
F0.01232306688202831
sg4
F0.016891891891891893
sg5
F0.0024223121517435373
sg7
F0.0042646473386384245
sg8
F0.00525087566235999
sg9
F0.007704665264191585
sg10
g6
sg11
g6
sg12
F0.005999323223099712
sg13
F0.01218502146432666
sg14
F0.28846153846153844
sg15
g6
sg16
F2.278075754409278e-05
sg17
I00
sg18
g6
sg19
F0.0074410059325303955
sg20
F0.0020609238775507847
ssS'MCDONALD REBECCA'
p154
(dp155
g3
g6
sg4
F0.06040268456375839
sg5
g6
sg7
g6
sg8
F0.0024290841790585186
sg9
g6
sg10
g6
sg11
g6
sg12
F0.0038925868299347767
sg13
g6
sg14
F0.07692307692307693
sg15
g6
sg16
g6
sg17
I00
sg18
g6
sg19
F0.007167345935172614
sg20
g6
ssS'CUMBERLAND MICHAEL S'
p156
(dp157
g3
F0.006923959497201735
sg4
g23
sg5
g6
sg7
F0.002607263557407624
sg8
g6
sg9
F0.0033386882811496867
sg10
g6
sg11
g6
sg12
F0.0004785625969876641
sg13
F0.004268033415355064
sg14
g23
sg15
g6
sg16
F1.671057626433966e-05
sg17
I00
sg18
g6
sg19
F0.001595582656196082
sg20
F0.005667540663264658
ssS'GAHN ROBERT S'
p158
(dp159
g3
F0.007190172013578823
sg4
g23
sg5
F0.0022791228210380225
sg7
F0.0029061761418294374
sg8
F0.0002669872082729244
sg9
F0.005237836904337818
sg10
g6
sg11
g6
sg12
F0.0007332566766300312
sg13
F0.009566018324426316
sg14
g23
sg15
g6
sg16
F0.0017940315305840224
sg17
I00
sg18
F3.7223736555113226e-05
sg19
F0.0018060608338408763
sg20
g6
ssS'BADUM JAMES P'
p160
(dp161
g3
g6
sg4
g23
sg5
F0.005578586506241422
sg7
F0.0005888154209708691
sg8
F0.0008269620610461759
sg9
g6
sg10
g6
sg11
g6
sg12
F0.0005933517989206915
sg13
F0.0006658773937490044
sg14
g23
sg15
g6
sg16
g6
sg17
I00
sg18
g6
sg19
g6
sg20
g6
ssS'HERMANN ROBERT J'
p162
(dp163
g3
F0.009836007622612882
sg4
g23
sg5
g6
sg7
F0.00418688985842998
sg8
F0.000601416456037259
sg9
F0.0071910209132454795
sg10
g6
sg11
g6
sg12
F0.0015376694481608253
sg13
F0.009236899922409812
sg14
g23
sg15
g6
sg16
F0.00976012495104891
sg17
I00
sg18
F0.010002539573350962
sg19
F0.0036880257921171264
sg20
F0.003091385816326177
ssS'FALLON JAMES B'
p164
(dp165
g3
F0.011405983673971639
sg4
F0.023931623931623933
sg5
g6
sg7
F0.011863501609790562
sg8
F0.0030159255077558665
sg9
F0.025682217547305285
sg10
g6
sg11
g6
sg12
F0.005367889403921472
sg13
F0.018322898197928712
sg14
F0.49333333333333335
sg15
g6
sg16
F0.009409507530411433
sg17
I00
sg18
g6
sg19
F0.01068230080870504
sg20
F0.007715006707895037
ssS'GATHMANN WILLIAM D'
p166
(dp167
g3
g6
sg4
g23
sg5
g6
sg7
g6
sg8
F0.005625299906339411
sg9
g6
sg10
g6
sg11
F0.009558007957989586
sg12
F0.0044771402023464565
sg13
g6
sg14
g23
sg15
g6
sg16
g6
sg17
I00
sg18
g6
sg19
F0.002025846704868213
sg20
g6
ssS'HORTON STANLEY C'
p168
(dp169
g3
g6
sg4
F0.01872340425531915
sg5
F0.09761622491584121
sg7
F0.01010647169512033
sg8
F0.016713183690227222
sg9
g6
sg10
g6
sg11
g6
sg12
F0.01670078057278705
sg13
g6
sg14
F0.013979496738117428
sg15
g6
sg16
g6
sg17
I00
sg18
g6
sg19
F0.015700145068803614
sg20
g6
ssS'BOWEN JR RAYMOND M'
p170
(dp171
g3
F0.010432841929268955
sg4
F0.07534983853606028
sg5
g6
sg7
F0.00861472915970209
sg8
g6
sg9
F0.013868397475544853
sg10
g6
sg11
g6
sg12
F0.0005800908694033167
sg13
F0.012589208660302819
sg14
F0.5555555555555556
sg15
g6
sg16
F3.799136623351275e-05
sg17
I01
sg18
F2.9757555230719115e-05
sg19
F0.001934089575875269
sg20
F0.02007943707430587
ssS'GILLIS JOHN'
p172
(dp173
g3
g6
sg4
g23
sg5
g6
sg7
g6
sg8
F3.1443656098844e-05
sg9
g6
sg10
g6
sg11
g6
sg12
F0.00019709810218630633
sg13
g6
sg14
g23
sg15
g6
sg16
g6
sg17
I00
sg18
g6
sg19
F0.0005819265051485932
sg20
g6
ssS'FITZGERALD JAY L'
p174
(dp175
g3
F0.007457882420046653
sg4
F0.0010683760683760685
sg5
g6
sg7
F0.004565725231377796
sg8
F0.00213129482557319
sg9
F0.0035955104566227397
sg10
g6
sg11
g6
sg12
F0.0037311864503697828
sg13
F0.004559521913020291
sg14
F0.5
sg15
g6
sg16
F0.006689246022314502
sg17
I00
sg18
g6
sg19
F0.0073416062127633274
sg20
F0.011467310202512975
ssS'MORAN MICHAEL P'
p176
(dp177
g3
g6
sg4
F0.0
sg5
g6
sg7
g6
sg8
F0.00019097458333867926
sg9
g6
sg10
g6
sg11
g6
sg12
F0.0005089439802849333
sg13
g6
sg14
F0.0
sg15
g6
sg16
g6
sg17
I00
sg18
g6
sg19
F0.0012400180263854922
sg20
g6
ssS'REDMOND BRIAN L'
p178
(dp179
g3
F0.003626391909685915
sg4
F0.12208258527827648
sg5
g6
sg7
F0.0003599026398641942
sg8
F0.024085651326003002
sg9
g6
sg10
g6
sg11
g6
sg12
F0.018159151411532622
sg13
F0.0028058155584564327
sg14
F0.22171945701357465
sg15
g6
sg16
g6
sg17
I00
sg18
g6
sg19
F0.002925708055533919
sg20
g6
ssS'BAZELIDES PHILIP J'
p180
(dp181
g3
F0.0030264120338392843
sg4
g23
sg5
F0.02134107000393599
sg7
F0.0027756477422215616
sg8
F0.005130935579476784
sg9
g6
sg10
g6
sg11
g6
sg12
F0.0036814867327495623
sg13
g6
sg14
g23
sg15
g6
sg16
F2.0483932194997003e-05
sg17
I00
sg18
g6
sg19
g6
sg20
F0.001932116135203861
ssS'BELDEN TIMOTHY N'
p182
(dp183
g3
F0.0080136745382164
sg4
F0.028532098610937303
sg5
F0.06682624869262593
sg7
F0.017753688821347334
sg8
F0.003057235601288154
sg9
F0.05393264657645408
sg10
g6
sg11
g6
sg12
F0.0025562271293987854
sg13
F0.0033150608630275304
sg14
F0.2231404958677686
sg15
g6
sg16
F0.004938127626569197
sg17
I01
sg18
F0.08339381595134279
sg19
F0.0012090716723774186
sg20
g6
ssS'DIMICHELE RICHARD G'
p184
(dp185
g3
F0.00984068852914645
sg4
g23
sg5
g6
sg7
F0.007641992634176146
sg8
F0.02627550005773598
sg9
F0.010272887018922114
sg10
g6
sg11
g6
sg12
F0.01914292274260482
sg13
F0.006840619972730735
sg14
g23
sg15
g6
sg16
F0.008781583604360677
sg17
I00
sg18
g6
sg19
F0.0009670409512956797
sg20
F0.014320576874026934
ssS'DURAN WILLIAM D'
p186
(dp187
g3
F0.00788983647496432
sg4
F0.1172566371681416
sg5
g6
sg7
F0.006754932615104975
sg8
F0.004656948845921915
sg9
F0.007704665264191585
sg10
g6
sg11
g6
sg12
F0.0037764650910023464
sg13
F0.0049253151456735735
sg14
F0.25
sg15
g6
sg16
F3.674920558553238e-05
sg17
I00
sg18
g6
sg19
F0.0014505652635854744
sg20
F0.022777701660989233
ssS'THORN TERENCE H'
p188
(dp189
g3
F0.008316772598078006
sg4
F0.0
sg5
F0.0005169652240055885
sg7
F0.0029412470372023364
sg8
F0.014281559128058403
sg9
g6
sg10
g6
sg11
g6
sg12
F0.011087895380959797
sg13
F0.008814375311115263
sg14
F0.0
sg15
g6
sg16
F0.009998901039381438
sg17
I00
sg18
g6
sg19
F0.0028032040779145556
sg20
F0.0041218477551015695
ssS'FASTOW ANDREW S'
p190
(dp191
g3
F0.016502929180243323
sg4
g23
sg5
g6
sg7
F0.007822484474440866
sg8
g6
sg9
F0.013354753124598747
sg10
g6
sg11
g6
sg12
F0.004129741592698992
sg13
F0.010681735437704553
sg14
g23
sg15
g6
sg16
F0.006502921925117447
sg17
I01
sg18
F0.04951453567264632
sg19
F0.013769032727085332
sg20
F0.03577877202241428
ssS'FOY JOE'
p192
(dp193
g3
g6
sg4
F0.0
sg5
F0.005665079843792097
sg7
F0.0005865210331708938
sg8
F0.0011015832488677332
sg9
g6
sg10
g6
sg11
g6
sg12
F0.0007903946664127221
sg13
g6
sg14
F0.0
sg15
g6
sg16
g6
sg17
I00
sg18
g6
sg19
g6
sg20
g6
ssS'CALGER CHRISTOPHER F'
p194
(dp195
g3
F0.008994418075129598
sg4
F0.07659738260200154
sg5
g6
sg7
F0.005289990207223717
sg8
g6
sg9
F0.012841108773652642
sg10
g6
sg11
g6
sg12
F0.0002900442839788609
sg13
F0.006841766061188134
sg14
F0.1736111111111111
sg15
g6
sg16
F1.139037877204639e-05
sg17
I01
sg18
F0.009377380850016527
sg19
F0.0009670409512956797
sg20
F0.007734729749403198
ssS'RICE KENNETH D'
p196
(dp197
g3
F0.01575166240523177
sg4
F0.04640883977900553
sg5
g6
sg7
F0.0016297898148769493
sg8
F0.06349089375296699
sg9
F0.0179775522831137
sg10
g6
sg11
g6
sg12
F0.051880427077694045
sg13
F0.008968142179149671
sg14
F0.2222222222222222
sg15
g6
sg16
F0.004097700481740367
sg17
I01
sg18
F0.12518842730463245
sg19
F0.021088977259371398
sg20
F0.03332536580162272
ssS'KAMINSKI WINCENTY J'
p198
(dp199
g3
F0.010301776546329048
sg4
F0.008899500759713479
sg5
g6
sg7
F0.003507157304018178
sg8
F0.0027264533429132293
sg9
F0.004109154807568845
sg10
g6
sg11
g6
sg12
F0.002246296054035052
sg13
F0.015965967285287014
sg14
F0.011901447661469933
sg15
g6
sg16
F0.00010942732198906294
sg17
I00
sg18
g6
sg19
F0.0009670409512956797
sg20
F0.006666388029758422
ssS'COX DAVID'
p200
(dp201
g3
F0.011769222020976527
sg4
F0.0
sg5
g6
sg7
F0.0035541809594629597
sg8
F0.00037705123105939107
sg9
F0.00821830961513769
sg10
g6
sg11
g6
sg12
F0.0011406723844993119
sg13
F0.005321861751933738
sg14
F0.12121212121212122
sg15
g6
sg16
F1.157787471891135e-05
sg17
I00
sg18
F0.0014735884192883114
sg19
F0.002901130527170949
sg20
g6
ssS'OVERDYKE JR JERE C'
p202
(dp203
g3
F0.003555279577627948
sg4
g23
sg5
g6
sg7
F0.0008060594168669805
sg8
F0.016892835606420242
sg9
g6
sg10
g6
sg11
g6
sg12
F0.01681803002006094
sg13
F0.0035975716677764625
sg14
g23
sg15
g6
sg16
F4.124910831029145e-06
sg17
I00
sg18
g6
sg19
F0.015661295232368484
sg20
F0.002799476558309884
ssS'PEREIRA PAULO V. FERRAZ'
p204
(dp205
g3
g6
sg4
g23
sg5
g6
sg7
F9.016847244291004e-05
sg8
g6
sg9
g6
sg10
F0.07239811886448287
sg11
g6
sg12
g6
sg13
F0.005337333946108629
sg14
g23
sg15
g6
sg16
g6
sg17
I00
sg18
F0.003616989756434946
sg19
g6
sg20
g6
ssS'STABLER FRANK'
p206
(dp207
g3
F0.008968691812821108
sg4
g23
sg5
g6
sg7
F0.0035886903590873417
sg8
g6
sg9
F0.005136443509461057
sg10
g6
sg11
g6
sg12
F0.0011777279600215702
sg13
F0.0031544174642487255
sg14
g23
sg15
g6
sg16
F0.008345233662019197
sg17
I00
sg18
g6
sg19
F0.00392668026827857
sg20
g6
ssS'SKILLING JEFFREY K'
p208
(dp209
g3
F0.04161355866143898
sg4
F0.0242624758753791
sg5
g6
sg7
F0.02801901218150505
sg8
F0.06174542281982525
sg9
F0.057528167305963836
sg10
g6
sg11
g6
sg12
F0.060053166477177525
sg13
F0.005603608497711071
sg14
F0.2777777777777778
sg15
g6
sg16
F0.0005184731670683338
sg17
I01
sg18
g6
sg19
F0.052513438241294376
sg20
F0.03956973844897507
ssS'BLAKE JR. NORMAN P'
p210
(dp211
g3
g6
sg4
g23
sg5
g6
sg7
F4.127316450307134e-06
sg8
g6
sg9
g6
sg10
F0.0813604696975439
sg11
g6
sg12
g6
sg13
F0.00024430785616895483
sg14
g23
sg15
g6
sg16
g6
sg17
I00
sg18
F0.004064746295764878
sg19
g6
sg20
g6
ssS'SHERRICK JEFFREY B'
p212
(dp213
g3
g6
sg4
F0.0636215334420881
sg5
g6
sg7
g6
sg8
F0.004575476963344068
sg9
g6
sg10
g6
sg11
g6
sg12
F0.0042173254062556065
sg13
g6
sg14
F0.72
sg15
g6
sg16
g6
sg17
I00
sg18
g6
sg19
F0.0031153455940797973
sg20
g6
ssS'PRENTICE JAMES'
p214
(dp215
g3
g6
sg4
g23
sg5
F0.017590033174792345
sg7
F0.0018211436935871232
sg8
F0.002842634172001899
sg9
g6
sg10
g6
sg11
g6
sg12
F0.0025201749841558705
sg13
g6
sg14
g23
sg15
g6
sg16
g6
sg17
I00
sg18
g6
sg19
F0.0016022507399136659
sg20
g6
ssS'GRAY RODNEY'
p216
(dp217
g3
F0.00024771357375642637
sg4
g23
sg5
F0.0029169293674522487
sg7
F0.0037002505287539312
sg8
g6
sg9
g6
sg10
g6
sg11
g6
sg12
g6
sg13
g6
sg14
g23
sg15
g6
sg16
F0.015956678498989012
sg17
I00
sg18
g6
sg19
g6
sg20
F0.007535252927295057
ssS'UMANOFF ADAM S'
p218
(dp219
g3
F0.010806865084927186
sg4
F0.10810810810810811
sg5
g6
sg7
F0.003647983019335929
sg8
g6
sg9
F0.008102739636174817
sg10
g6
sg11
g6
sg12
g6
sg13
F0.01014708517232777
sg14
F0.0
sg15
g6
sg16
g6
sg17
I00
sg18
g6
sg19
g6
sg20
g6
ssS'KEAN STEVEN J'
p220
(dp221
g3
F0.015141347087759022
sg4
F0.010976948408342482
sg5
g6
sg7
F0.005639230881840206
sg8
F0.006485829024518546
sg9
F0.010272887018922114
sg10
g6
sg11
g6
sg12
F0.014162272273022811
sg13
F0.00801364150887894
sg14
F0.05725699067909454
sg15
g6
sg16
F2.8850938823845894e-05
sg17
I00
sg18
g6
sg19
F0.03170289376187263
sg20
F0.006182771632652354
ssS'FOWLER PEGGY'
p222
(dp223
g3
g6
sg4
F0.0
sg5
g6
sg7
g6
sg8
F0.004248656034692909
sg9
g6
sg10
g6
sg11
g6
sg12
F0.004337644981952995
sg13
g6
sg14
F0.0
sg15
g6
sg16
g6
sg17
I00
sg18
g6
sg19
F0.0042983434477318425
sg20
g6
ssS'WASAFF GEORGE'
p224
(dp225
g3
F0.009736135800812673
sg4
F0.055
sg5
F0.025910567572086197
sg7
F0.0033379792803873713
sg8
F0.005351034757059827
sg9
F0.0033386882811496867
sg10
g6
sg11
g6
sg12
F0.004732754860226753
sg13
g6
sg14
F0.23333333333333334
sg15
g6
sg16
F3.33977155353212e-05
sg17
I00
sg18
F0.02083832641651768
sg19
F0.0029785155954009067
sg20
F0.0041218477551015695
ssS'WHITE JR THOMAS E'
p226
(dp227
g3
F0.011891112827110643
sg4
g23
sg5
g6
sg7
F0.006242151463252274
sg8
F0.00416035526872891
sg9
F0.004622799158514951
sg10
g6
sg11
g6
sg12
F0.034853375165820016
sg13
F0.015539622379134466
sg14
g23
sg15
g6
sg16
F0.025439989121485162
sg17
I00
sg18
g6
sg19
F0.10625253012149517
sg20
g6
ssS'CHRISTODOULOU DIOMEDES'
p228
(dp229
g3
g6
sg4
g23
sg5
g6
sg7
g6
sg8
F0.0164456287448198
sg9
g6
sg10
g6
sg11
g6
sg12
F0.013987921659095744
sg13
g6
sg14
g23
sg15
g6
sg16
g6
sg17
I00
sg18
g6
sg19
F0.007295221211528811
sg20
g6
ssS'ALLEN PHILLIP K'
p230
(dp231
g3
F0.007562659831894042
sg4
F0.016195727084769126
sg5
F0.0894455499660946
sg7
F0.014471236307309012
sg8
F0.0055475969002193965
sg9
F0.04288930330399982
sg10
g6
sg11
F0.016633301604848914
sg12
F0.0039804445155171755
sg13
F0.002648992454535626
sg14
F0.029612756264236904
sg15
g6
sg16
F3.5624229904342617e-06
sg17
I00
sg18
F0.11006562344703875
sg19
F0.0009670409512956797
sg20
F0.00628179902496867
ssS'SHARP VICTORIA T'
p232
(dp233
g3
F0.009292385861430412
sg4
F0.007653061224489796
sg5
F0.0058431781972207684
sg7
F0.005087380597646717
sg8
F0.0009015569469213893
sg9
F0.006163732211353268
sg10
g6
sg11
g6
sg12
F0.0011372271204438606
sg13
F0.022222082144744096
sg14
F0.04411764705882353
sg15
g6
sg16
F5.627222105284646e-05
sg17
I00
sg18
g6
sg19
F0.001634892889665797
sg20
F0.008700355022990842
ssS'JAEDICKE ROBERT'
p234
(dp235
g3
g6
sg4
g23
sg5
g6
sg7
F0.0002702601663121364
sg8
F0.001384861626101795
sg9
g6
sg10
F0.0777609424840742
sg11
F0.0058194844570020965
sg12
F0.0009936491355651822
sg13
g6
sg14
g23
sg15
g6
sg16
g6
sg17
I00
sg18
F0.0008930838904777645
sg19
F0.00033833810743317226
sg20
g6
ssS'WINOKUR JR. HERBERT S'
p236
(dp237
g3
g6
sg4
g23
sg5
g6
sg7
F0.00027426808424120715
sg8
g6
sg9
g6
sg10
F0.07763867010554752
sg11
g6
sg12
g6
sg13
F0.0002699038317175396
sg14
g23
sg15
g6
sg16
g6
sg17
I00
sg18
F0.0008930838904777645
sg19
g6
sg20
g6
ssS'BROWN MICHAEL'
p238
(dp239
g3
g6
sg4
F0.008748317631224764
sg5
g6
sg7
F0.00015905173823513527
sg8
g6
sg9
g6
sg10
g6
sg11
g6
sg12
g6
sg13
F0.009414734648049606
sg14
F0.024390243902439025
sg15
g6
sg16
g6
sg17
I00
sg18
g6
sg19
g6
sg20
g6
ssS'MCCLELLAN GEORGE'
p240
(dp241
g3
F0.009864093061814292
sg4
F0.02981651376146789
sg5
g6
sg7
F0.004255631136791546
sg8
F0.0016254763218331815
sg9
F0.009245598317029901
sg10
g6
sg11
g6
sg12
F0.002181450522955296
sg13
F0.043697105630006734
sg14
F0.0
sg15
g6
sg16
F0.0012090441763653438
sg17
I00
sg18
F0.004465419452388823
sg19
F0.0033846548394607435
sg20
g6
ssS'HUGHES JAMES A'
p242
(dp243
g3
g6
sg4
F0.048678720445062586
sg5
g6
sg7
g6
sg8
F0.0024215945394593344
sg9
g6
sg10
g6
sg11
g6
sg12
F0.0025739229445773857
sg13
g6
sg14
F0.14705882352941177
sg15
g6
sg16
g6
sg17
I00
sg18
g6
sg19
F0.0027886862247572843
sg20
g6
ssS'REYNOLDS LAWRENCE'
p244
(dp245
g3
F0.002860932626064583
sg4
g23
sg5
F0.0016009838858704359
sg7
F0.001272965720668418
sg8
F0.01334558191452509
sg9
F0.0010272887018922114
sg10
g6
sg11
F0.018512330026919058
sg12
F0.009716452443776311
sg13
F0.0016062429730451457
sg14
g23
sg15
g6
sg16
F0.004735491381994891
sg17
I00
sg18
F0.007144671123822116
sg19
F0.0015460362619907435
sg20
F0.0032201935586731014
ssS'PICKERING MARK R'
p246
(dp247
g3
F0.02452933578423103
sg4
F0.0077951002227171495
sg5
g6
sg7
F0.004474830686846286
sg8
F9.237115253845858e-05
sg9
F0.003081866105676634
sg10
g6
sg11
g6
sg12
F6.627703023973623e-05
sg13
F0.006046189657010107
sg14
F0.0
sg15
F0.004766160262138814
sg16
g6
sg17
I00
sg18
g6
sg19
g6
sg20
g6
ssS'BHATNAGAR SANJAY'
p248
(dp249
g3
g6
sg4
F0.0
sg5
g6
sg7
F0.04987724783246103
sg8
F0.008354043443117229
sg9
g6
sg10
F0.09857870873217844
sg11
F-2.0399528137780814
sg12
S'NaN'
p250
sg13
g6
sg14
F0.034482758620689655
sg15
g6
sg16
F0.003231117652323875
sg17
I00
sg18
g6
sg19
F-0.01998499121013818
sg20
g6
ssS'CARTER REBECCA C'
p251
(dp252
g3
F0.009804027669175545
sg4
F0.09294871794871795
sg5
g6
sg7
F0.0015410702596241783
sg8
g6
sg9
F0.003081866105676634
sg10
g6
sg11
F0.040558215433769564
sg12
g6
sg13
g6
sg14
F0.4666666666666667
sg15
g6
sg16
F1.2655976413384877e-05
sg17
I00
sg18
F0.005708306441088918
sg19
F0.002358007818754026
sg20
F0.0015456929081630886
ssS'BUCHANAN HAROLD G'
p253
(dp254
g3
F0.00928755516588777
sg4
F0.0
sg5
g6
sg7
F0.003403299952464867
sg8
F0.0026477207118204794
sg9
F0.005136443509461057
sg10
g6
sg11
g6
sg12
F0.0023348280631767344
sg13
F0.0001146088457399319
sg14
F0.0
sg15
g6
sg16
F2.847594693011597e-05
sg17
I00
sg18
g6
sg19
F0.0014505652635854744
sg20
F0.00628179902496867
ssS'YEAP SOON'
p255
(dp256
g3
g6
sg4
g23
sg5
g6
sg7
F0.0001777973060692511
sg8
F0.0006182817772417598
sg9
g6
sg10
g6
sg11
g6
sg12
F0.00044362204996704896
sg13
F0.010524339289555047
sg14
g23
sg15
g6
sg16
g6
sg17
I00
sg18
g6
sg19
g6
sg20
g6
ssS'MURRAY JULIA H'
p257
(dp258
g3
F0.008586055789141114
sg4
F0.005018248175182482
sg5
g6
sg7
F0.002620939528569783
sg8
F0.0012845549838980768
sg9
F0.004109154807568845
sg10
g6
sg11
g6
sg12
F0.0013750239865290314
sg13
F0.010998628896175465
sg14
F0.044444444444444446
sg15
g6
sg16
F7.734207808179646e-06
sg17
I00
sg18
g6
sg19
F0.0015115064843968108
sg20
F0.002576154846938481
ssS'GARLAND C KEVIN'
p259
(dp260
g3
F0.00868574037467998
sg4
F0.04784688995215311
sg5
g6
sg7
F0.0050549751935857435
sg8
F0.0020407936772687033
sg9
F0.008731953966083797
sg10
g6
sg11
g6
sg12
F0.0020624473741381465
sg13
F0.009246068630069005
sg14
F0.6136363636363636
sg15
g6
sg16
F0.0014252973140807183
sg17
I00
sg18
g6
sg19
F0.0019943402011347268
sg20
F0.007734729749403198
ssS'DODSON KEITH'
p261
(dp262
g3
F0.00827595509310529
sg4
F0.056818181818181816
sg5
g6
sg7
F0.0010324454671053283
sg8
g6
sg9
F0.000719102091324548
sg10
g6
sg11
g6
sg12
g6
sg13
F0.005379739219032403
sg14
F0.21428571428571427
sg15
g6
sg16
F1.814023285918499e-05
sg17
I00
sg18
g6
sg19
g6
sg20
g6
ssS'YEAGER F SCOTT'
p263
(dp264
g3
F0.005931757101094362
sg4
g23
sg5
g6
sg7
F0.0011626834378777643
sg8
F0.02665013279275349
sg9
g6
sg10
g6
sg11
g6
sg12
F0.027352123944647096
sg13
F0.010304672335220177
sg14
g23
sg15
g6
sg16
F0.003467503167333875
sg17
I01
sg18
g6
sg19
F0.027441243957797276
sg20
g6
ssS'HIRKO JOSEPH'
p265
(dp266
g3
g6
sg4
g23
sg5
F0.00031976041439004776
sg7
F0.00029395593229697246
sg8
F0.09868382494450931
sg9
g6
sg10
g6
sg11
g6
sg12
F0.07080642246286756
sg13
F0.01489494762184735
sg14
g23
sg15
g6
sg16
F6.693605303079113e-05
sg17
I01
sg18
g6
sg19
g6
sg20
g6
ssS'DIETRICH JANET R'
p267
(dp268
g3
F0.009365557792363149
sg4
F0.11858475894245724
sg5
g6
sg7
F0.004551549077221268
sg8
F0.004971770313442219
sg9
F0.006163732211353268
sg10
g6
sg11
g6
sg12
F0.004292396260113165
sg13
F0.0006637762315771056
sg14
F0.2222222222222222
sg15
g6
sg16
F1.1085697858390827e-05
sg17
I00
sg18
g6
sg19
F0.002417606214881154
sg20
F0.011467310202512975
ssS'DERRICK JR. JAMES V'
p269
(dp270
g3
F0.018438090835724934
sg4
F0.029344337459880788
sg5
g6
sg7
F0.001778008557550176
sg8
F0.028328841687943446
sg9
F0.00821830961513769
sg10
g6
sg11
F0.2359020735435649
sg12
F0.020326167267717184
sg13
F0.009765437716013797
sg14
F0.022002200220022004
sg15
g6
sg16
F0.0001753555843054549
sg17
I00
sg18
F0.04586878861493798
sg19
F0.013715074194631879
sg20
F0.009974871567345799
ssS'FREVERT MARK A'
p271
(dp272
g3
F0.039728988243772176
sg4
F0.07389312977099237
sg5
F0.200321374956691
sg7
F0.055673691069911914
sg8
F0.033466076904325064
sg9
F0.020545774037844227
sg10
g6
sg11
g6
sg12
F0.033652163254948866
sg13
F0.016615799440632427
sg14
F0.2857142857142857
sg15
F0.023830801310694073
sg16
F0.1740811040436337
sg17
I00
sg18
F0.12028093132645713
sg19
F0.03214083109445453
sg20
F0.03332536580162272
ssS'PAI LOU L'
p273
(dp274
g3
F0.009806648976834344
sg4
g23
sg5
g6
sg7
F0.010079116525808951
sg8
F0.04928140195789123
sg9
F0.010272887018922114
sg10
g6
sg11
g6
sg12
F0.05481567007632199
sg13
F0.006121449465712663
sg14
g23
sg15
g6
sg16
F0.0428769715579664
sg17
I00
sg18
g6
sg19
F0.06486812360484831
sg20
g6
ssS'HAYSLETT RODERICK J'
p275
(dp276
g3
g6
sg4
F0.01321253303133258
sg5
g6
sg7
g6
sg8
g6
sg9
g6
sg10
g6
sg11
g6
sg12
F0.0007978260342384082
sg13
g6
sg14
F0.03581526861451461
sg15
g6
sg16
g6
sg17
I00
sg18
g6
sg19
F0.0026600436200101105
sg20
g6
ssS'BAY FRANKLIN R'
p277
(dp278
g3
F0.008975020398454492
sg4
g23
sg5
F0.00811806206549955
sg7
F0.002670964281980777
sg8
g6
sg9
F0.004109154807568845
sg10
g6
sg11
F0.010925737924830417
sg12
F0.0001450232927122279
sg13
F0.024668025927577143
sg14
g23
sg15
g6
sg16
F1.6171525417102897e-06
sg17
I00
sg18
F0.007203293150393077
sg19
F0.001118734100907781
sg20
g6
ssS'MCCARTY DANNY J'
p279
(dp280
g3
g6
sg4
F0.017445917655268667
sg5
g6
sg7
g6
sg8
F0.002131018975892021
sg9
g6
sg10
g6
sg11
g6
sg12
F0.0017466384067252327
sg13
g6
sg14
F0.009302325581395349
sg15
g6
sg16
g6
sg17
I00
sg18
g6
sg19
F0.0007255550333715337
sg20
g6
ssS'FUGH JOHN L'
p281
(dp282
g3
g6
sg4
g23
sg5
F0.0015768592576671124
sg7
F0.00016325650237489307
sg8
F0.0005657420356423448
sg9
g6
sg10
g6
sg11
g6
sg12
F0.00040592437112383484
sg13
g6
sg14
g23
sg15
g6
sg16
g6
sg17
I00
sg18
g6
sg19
g6
sg20
g6
ssS'SCRIMSHAW MATTHEW'
p283
(dp284
g3
g6
sg4
g23
sg5
g6
sg7
g6
sg8
F0.002436320421857559
sg9
g6
sg10
g6
sg11
g6
sg12
F0.0017480791116675925
sg13
g6
sg14
g23
sg15
g6
sg16
g6
sg17
I00
sg18
g6
sg19
g6
sg20
g6
ssS'KOENIG MARK E'
p285
(dp286
g3
F0.011606626051626505
sg4
F0.02232518955349621
sg5
g6
sg7
F0.005122587026476154
sg8
F0.002154632991621868
sg9
F0.0071910209132454795
sg10
g6
sg11
g6
sg12
F0.00441890212156944
sg13
F0.024262119598914885
sg14
F0.2459016393442623
sg15
g6
sg16
F0.00352628314667604
sg17
I01
sg18
g6
sg19
F0.009578698423667311
sg20
F0.006182771632652354
ssS'SAVAGE FRANK'
p287
(dp288
g3
g6
sg4
g23
sg5
g6
sg7
F1.2101201476662825e-05
sg8
g6
sg9
g6
sg10
F0.08940470512693088
sg11
g6
sg12
g6
sg13
g6
sg14
g23
sg15
g6
sg16
g6
sg17
I00
sg18
F0.004332671462908208
sg19
g6
sg20
g6
ssS'IZZO LAWRENCE L'
p289
(dp290
g3
F0.003193276989947922
sg4
F0.056451612903225805
sg5
g6
sg7
F0.006388130676905552
sg8
F0.006944907045072555
sg9
g6
sg10
g6
sg11
g6
sg12
F0.013394367332962707
sg13
F0.005366177172286511
sg14
F0.2631578947368421
sg15
g6
sg16
F0.03641473625331865
sg17
I00
sg18
g6
sg19
F0.028044379419672454
sg20
F0.006440387117346203
ssS'TILNEY ELIZABETH A'
p291
(dp292
g3
F0.009262128481597428
sg4
F0.021739130434782608
sg5
g6
sg7
F0.001288836043031679
sg8
F0.00189646655803749
sg9
F0.003081866105676634
sg10
g6
sg11
g6
sg12
F0.0026881851154691985
sg13
g6
sg14
F0.5789473684210527
sg15
g6
sg16
F0.003563712025068958
sg17
I00
sg18
F0.020540929480988585
sg19
F0.00442588877287992
sg20
F0.005667540663264658
ssS'MARTIN AMANDA K'
p293
(dp294
g3
F0.01308732785357705
sg4
F0.005256241787122208
sg5
F0.0026627480457492715
sg7
F0.0271293318489408
sg8
F0.006640619186307591
sg9
g6
sg10
g6
sg11
g6
sg12
F0.004764696623637313
sg13
F0.0015684220539509681
sg14
F0.0
sg15
g6
sg16
F0.06605608767816715
sg17
I00
sg18
g6
sg19
g6
sg20
F0.10604347790961645
ssS'BUY RICHARD B'
p295
(dp296
g3
F0.012378039448358535
sg4
F0.04428044280442804
sg5
F0.02024673447910564
sg7
F0.007601819872260686
sg8
F0.00815621110840251
sg9
F0.009245598317029901
sg10
g6
sg11
g6
sg12
F0.007927260308002787
sg13
g6
sg14
F0.06742640075973409
sg15
g6
sg16
F0.009388203303448901
sg17
I00
sg18
F0.024822802332206417
sg19
F0.00691867015022502
sg20
F0.015866269782190023
ssS'GRAMM WENDY L'
p297
(dp298
g3
g6
sg4
g23
sg5
g6
sg7
F0.00038495374041441646
sg8
g6
sg9
g6
sg10
F0.08529892736377177
sg11
g6
sg12
g6
sg13
g6
sg14
g23
sg15
g6
sg16
g6
sg17
I00
sg18
g6
sg19
g6
sg20
g6
ssS'CAUSEY RICHARD A'
p299
(dp300
g3
F0.015547687222125005
sg4
F0.0306553911205074
sg5
g6
sg7
F0.006030457885100125
sg8
g6
sg9
F0.010272887018922114
sg10
g6
sg11
g6
sg12
F0.005758361869321659
sg13
F0.005859186223711119
sg14
F0.24489795918367346
sg15
g6
sg16
F0.007216133069998401
sg17
I01
sg18
F0.008394988570490987
sg19
F0.019199039759112906
sg20
F0.0072132335714277475
ssS'TAYLOR MITCHELL S'
p301
(dp302
g3
F0.009931535563149942
sg4
F0.0
sg5
F0.007089305633356269
sg7
F0.0035260093624252887
sg8
F0.01020403253743216
sg9
F0.006163732211353268
sg10
g6
sg11
g6
sg12
F0.00861902422200374
sg13
g6
sg14
F0.0
sg15
g6
sg16
g6
sg17
I00
sg18
g6
sg19
F0.004326182121756461
sg20
g6
ssS'DONAHUE JR JEFFREY M'
p303
(dp304
g3
F0.010432841929268955
sg4
F0.21734104046242775
sg5
g6
sg7
F0.0028260661880539295
sg8
F0.0024567300907096393
sg9
F0.00821830961513769
sg10
g6
sg11
g6
sg12
F0.002487835070657406
sg13
F0.018388607269486275
sg14
F0.5
sg15
g6
sg16
F2.0882361082085047e-05
sg17
I00
sg18
F0.010717006685733175
sg19
F0.002417606214881154
sg20
g6
ssS'GLISAN JR BEN F'
p305
(dp306
g3
F0.010297058192543212
sg4
F0.05956471935853379
sg5
g6
sg7
F0.004105644005209196
sg8
F0.001234036001590947
sg9
F0.006163732211353268
sg10
g6
sg11
g6
sg12
F0.0017917812620677018
sg13
F0.0240636552810419
sg14
F0.375
sg15
g6
sg16
F0.004694617265578329
sg17
I01
sg18
g6
sg19
F0.0030218773227749765
sg20
F0.001463729965552894
ss.